target datalayout = "e-m:e-p270:32:32-p271:32:32-p272:64:64-i64:64-i128:128-f80:128-n8:16:32:64-S128"
target triple = "x86_64-pc-linux-gnu"

%struct.SDL_TLSEntry = type { i64, ptr, ptr }

@SDL_generic_TLS_mutex = internal global ptr null, align 8
@SDL_generic_TLS = internal global ptr null, align 8

; Function Attrs: nounwind uwtable
define hidden zeroext i1 @SDL_Generic_SetTLSData(ptr noundef %0) #0 {
  %2 = alloca ptr, align 8
  %3 = alloca i64, align 8
  %4 = alloca ptr, align 8
  %5 = alloca ptr, align 8
  %6 = alloca i8, align 1
  store ptr %0, ptr %2, align 8
  call void @llvm.lifetime.start.p0(i64 8, ptr %3) #6
  %7 = call i64 @SDL_GetCurrentThreadID_REAL()
  store i64 %7, ptr %3, align 8
  call void @llvm.lifetime.start.p0(i64 8, ptr %4) #6
  call void @llvm.lifetime.start.p0(i64 8, ptr %5) #6
  call void @llvm.lifetime.start.p0(i64 1, ptr %6) #6
  store i8 1, ptr %6, align 1
  %8 = load ptr, ptr @SDL_generic_TLS_mutex, align 8
  call void @SDL_LockMutex_REAL(ptr noundef %8)
  store ptr null, ptr %4, align 8
  %9 = load ptr, ptr @SDL_generic_TLS, align 8
  store ptr %9, ptr %5, align 8
  br label %10

10:                                               ; preds = %44, %1
  %11 = load ptr, ptr %5, align 8
  %12 = icmp ne ptr %11, null
  br i1 %12, label %13, label %48

13:                                               ; preds = %10
  %14 = load ptr, ptr %5, align 8
  %15 = getelementptr inbounds nuw %struct.SDL_TLSEntry, ptr %14, i32 0, i32 0
  %16 = load i64, ptr %15, align 8
  %17 = load i64, ptr %3, align 8
  %18 = icmp eq i64 %16, %17
  br i1 %18, label %19, label %42

19:                                               ; preds = %13
  %20 = load ptr, ptr %2, align 8
  %21 = icmp ne ptr %20, null
  br i1 %21, label %22, label %26

22:                                               ; preds = %19
  %23 = load ptr, ptr %2, align 8
  %24 = load ptr, ptr %5, align 8
  %25 = getelementptr inbounds nuw %struct.SDL_TLSEntry, ptr %24, i32 0, i32 1
  store ptr %23, ptr %25, align 8
  br label %41

26:                                               ; preds = %19
  %27 = load ptr, ptr %4, align 8
  %28 = icmp ne ptr %27, null
  br i1 %28, label %29, label %35

29:                                               ; preds = %26
  %30 = load ptr, ptr %5, align 8
  %31 = getelementptr inbounds nuw %struct.SDL_TLSEntry, ptr %30, i32 0, i32 2
  %32 = load ptr, ptr %31, align 8
  %33 = load ptr, ptr %4, align 8
  %34 = getelementptr inbounds nuw %struct.SDL_TLSEntry, ptr %33, i32 0, i32 2
  store ptr %32, ptr %34, align 8
  br label %39

35:                                               ; preds = %26
  %36 = load ptr, ptr %5, align 8
  %37 = getelementptr inbounds nuw %struct.SDL_TLSEntry, ptr %36, i32 0, i32 2
  %38 = load ptr, ptr %37, align 8
  store ptr %38, ptr @SDL_generic_TLS, align 8
  br label %39

39:                                               ; preds = %35, %29
  %40 = load ptr, ptr %5, align 8
  call void @SDL_free_REAL(ptr noundef %40)
  br label %41

41:                                               ; preds = %39, %22
  br label %48

42:                                               ; preds = %13
  %43 = load ptr, ptr %5, align 8
  store ptr %43, ptr %4, align 8
  br label %44

44:                                               ; preds = %42
  %45 = load ptr, ptr %5, align 8
  %46 = getelementptr inbounds nuw %struct.SDL_TLSEntry, ptr %45, i32 0, i32 2
  %47 = load ptr, ptr %46, align 8
  store ptr %47, ptr %5, align 8
  br label %10, !llvm.loop !7

48:                                               ; preds = %41, %10
  %49 = load ptr, ptr %5, align 8
  %50 = icmp ne ptr %49, null
  br i1 %50, label %71, label %51

51:                                               ; preds = %48
  %52 = load ptr, ptr %2, align 8
  %53 = icmp ne ptr %52, null
  br i1 %53, label %54, label %71

54:                                               ; preds = %51
  %55 = call noalias ptr @SDL_malloc_REAL(i64 noundef 24)
  store ptr %55, ptr %5, align 8
  %56 = load ptr, ptr %5, align 8
  %57 = icmp ne ptr %56, null
  br i1 %57, label %58, label %69

58:                                               ; preds = %54
  %59 = load i64, ptr %3, align 8
  %60 = load ptr, ptr %5, align 8
  %61 = getelementptr inbounds nuw %struct.SDL_TLSEntry, ptr %60, i32 0, i32 0
  store i64 %59, ptr %61, align 8
  %62 = load ptr, ptr %2, align 8
  %63 = load ptr, ptr %5, align 8
  %64 = getelementptr inbounds nuw %struct.SDL_TLSEntry, ptr %63, i32 0, i32 1
  store ptr %62, ptr %64, align 8
  %65 = load ptr, ptr @SDL_generic_TLS, align 8
  %66 = load ptr, ptr %5, align 8
  %67 = getelementptr inbounds nuw %struct.SDL_TLSEntry, ptr %66, i32 0, i32 2
  store ptr %65, ptr %67, align 8
  %68 = load ptr, ptr %5, align 8
  store ptr %68, ptr @SDL_generic_TLS, align 8
  br label %70

69:                                               ; preds = %54
  store i8 0, ptr %6, align 1
  br label %70

70:                                               ; preds = %69, %58
  br label %71

71:                                               ; preds = %70, %51, %48
  %72 = load ptr, ptr @SDL_generic_TLS_mutex, align 8
  call void @SDL_UnlockMutex_REAL(ptr noundef %72)
  %73 = load i8, ptr %6, align 1, !range !8, !noundef !9
  %74 = trunc i8 %73 to i1
  call void @llvm.lifetime.end.p0(i64 1, ptr %6) #6
  call void @llvm.lifetime.end.p0(i64 8, ptr %5) #6
  call void @llvm.lifetime.end.p0(i64 8, ptr %4) #6
  call void @llvm.lifetime.end.p0(i64 8, ptr %3) #6
  ret i1 %74
}