; Function Attrs: nounwind uwtable
define hidden noundef zeroext i1 @SDL_Generic_SetTLSData(ptr noundef %0) local_unnamed_addr #0 {
  %2 = tail call i64 @SDL_GetCurrentThreadID_REAL() #6
  %3 = load ptr, ptr @SDL_generic_TLS_mutex, align 8
  tail call void @SDL_LockMutex_REAL(ptr noundef %3) #6
  %.02334 = load ptr, ptr @SDL_generic_TLS, align 8
  %.not35 = icmp eq ptr %.02334, null
  br i1 %.not35, label %._crit_edge, label %.lr.ph.preheader

.lr.ph.preheader:                                 ; preds = %1
  %4 = load i64, ptr %.02334, align 8
  %5 = icmp eq i64 %4, %2
  br i1 %5, label %.lr.ph._crit_edge, label %.lr.ph45

.lr.ph:                                           ; preds = %.lr.ph45
  %6 = load i64, ptr %.023, align 8
  %7 = icmp eq i64 %6, %2
  br i1 %7, label %.lr.ph._crit_edge, label %.lr.ph45, !llvm.loop !6

.lr.ph._crit_edge:                                ; preds = %.lr.ph, %.lr.ph.preheader
  %.02337.lcssa = phi ptr [ %.02334, %.lr.ph.preheader ], [ %.023, %.lr.ph ]
  %.02436.lcssa = phi ptr [ null, %.lr.ph.preheader ], [ %.0233744, %.lr.ph ]
  %.not27 = icmp eq ptr %0, null
  br i1 %.not27, label %10, label %8

8:                                                ; preds = %.lr.ph._crit_edge
  %9 = getelementptr inbounds nuw i8, ptr %.02337.lcssa, i64 8
  store ptr %0, ptr %9, align 8
  br label %.thread

10:                                               ; preds = %.lr.ph._crit_edge
  %.not28 = icmp eq ptr %.02436.lcssa, null
  %11 = getelementptr inbounds nuw i8, ptr %.02337.lcssa, i64 16
  %12 = load ptr, ptr %11, align 8
  br i1 %.not28, label %15, label %13

13:                                               ; preds = %10
  %14 = getelementptr inbounds nuw i8, ptr %.02436.lcssa, i64 16
  store ptr %12, ptr %14, align 8
  br label %16

15:                                               ; preds = %10
  store ptr %12, ptr @SDL_generic_TLS, align 8
  br label %16

16:                                               ; preds = %15, %13
  tail call void @SDL_free_REAL(ptr noundef nonnull %.02337.lcssa) #6
  br label %.thread

.lr.ph45:                                         ; preds = %.lr.ph.preheader, %.lr.ph
  %.0233744 = phi ptr [ %.023, %.lr.ph ], [ %.02334, %.lr.ph.preheader ]
  %17 = getelementptr inbounds nuw i8, ptr %.0233744, i64 16
  %.023 = load ptr, ptr %17, align 8
  %.not = icmp eq ptr %.023, null
  br i1 %.not, label %._crit_edge, label %.lr.ph, !llvm.loop !6

._crit_edge:                                      ; preds = %.lr.ph45, %1
  %.not31 = icmp eq ptr %0, null
  br i1 %.not31, label %.thread, label %18

18:                                               ; preds = %._crit_edge
  %19 = tail call noalias ptr @SDL_malloc_REAL(i64 noundef 24) #6
  %.not29 = icmp eq ptr %19, null
  br i1 %.not29, label %.thread, label %20

20:                                               ; preds = %18
  store i64 %2, ptr %19, align 8
  %21 = getelementptr inbounds nuw i8, ptr %19, i64 8
  store ptr %0, ptr %21, align 8
  %22 = load ptr, ptr @SDL_generic_TLS, align 8
  %23 = getelementptr inbounds nuw i8, ptr %19, i64 16
  store ptr %22, ptr %23, align 8
  store ptr %19, ptr @SDL_generic_TLS, align 8
  br label %.thread

.thread:                                          ; preds = %16, %8, %18, %20, %._crit_edge
  %.0 = phi i1 [ true, %20 ], [ true, %._crit_edge ], [ false, %18 ], [ true, %8 ], [ true, %16 ]
  %24 = load ptr, ptr @SDL_generic_TLS_mutex, align 8
  tail call void @SDL_UnlockMutex_REAL(ptr noundef %24) #6
  ret i1 %.0
}